; ModuleID = 'source-C-CXX/53/366.c'
source_filename = "source-C-CXX/53/366.c"
target datalayout = "e-m:e-p270:32:32-p271:32:32-p272:64:64-i64:64-f80:128-n8:16:32:64-S128"
target triple = "x86_64-pc-linux-gnu"

@.str = private unnamed_addr constant [5 x i8] c"%d%d\00", align 1
@.str.1 = private unnamed_addr constant [4 x i8] c"%d\0A\00", align 1

; Function Attrs: nofree nounwind sspstrong uwtable
define dso_local i32 @main() local_unnamed_addr #0 {
  %1 = alloca i32, align 4
  %2 = alloca i32, align 4
  %3 = bitcast i32* %1 to i8*
  call void @llvm.lifetime.start.p0i8(i64 4, i8* nonnull %3) #3
  %4 = bitcast i32* %2 to i8*
  call void @llvm.lifetime.start.p0i8(i64 4, i8* nonnull %4) #3
  %5 = call i32 (i8*, ...) @__isoc99_scanf(i8* getelementptr inbounds ([5 x i8], [5 x i8]* @.str, i64 0, i64 0), i32* nonnull %1, i32* nonnull %2)
  %6 = load i32, i32* %1, align 4, !tbaa !5
  %7 = load i32, i32* %2, align 4
  %8 = add nsw i32 %6, -1
  %9 = icmp slt i32 %6, 1
  br i1 %9, label %10, label %13

10:                                               ; preds = %0
  %11 = icmp eq i32 %6, 0
  br i1 %11, label %30, label %12

12:                                               ; preds = %10, %12
  br label %12

13:                                               ; preds = %0, %28
  %14 = phi i32 [ %29, %28 ], [ 1, %0 ]
  br label %15

15:                                               ; preds = %13, %23
  %16 = phi i32 [ %14, %13 ], [ %25, %23 ]
  %17 = phi i32 [ 1, %13 ], [ %26, %23 ]
  %18 = sub nsw i32 %16, %7
  %19 = icmp slt i32 %18, 1
  br i1 %19, label %28, label %20

20:                                               ; preds = %15
  %21 = srem i32 %16, %6
  %22 = icmp eq i32 %21, %7
  br i1 %22, label %23, label %28

23:                                               ; preds = %20
  %24 = sdiv i32 %18, %6
  %25 = mul nsw i32 %24, %8
  %26 = add nuw i32 %17, 1
  %27 = icmp eq i32 %17, %6
  br i1 %27, label %30, label %15, !llvm.loop !9

28:                                               ; preds = %20, %15
  %29 = add nuw nsw i32 %14, 1
  br label %13

30:                                               ; preds = %23, %10
  %31 = phi i32 [ 1, %10 ], [ %14, %23 ]
  %32 = call i32 (i8*, ...) @printf(i8* nonnull dereferenceable(1) getelementptr inbounds ([4 x i8], [4 x i8]* @.str.1, i64 0, i64 0), i32 %31)
  call void @llvm.lifetime.end.p0i8(i64 4, i8* nonnull %4) #3
  call void @llvm.lifetime.end.p0i8(i64 4, i8* nonnull %3) #3
  ret i32 0
}

; Function Attrs: argmemonly mustprogress nofree nosync nounwind willreturn
declare void @llvm.lifetime.start.p0i8(i64 immarg, i8* nocapture) #1

; Function Attrs: nofree nounwind
declare noundef i32 @__isoc99_scanf(i8* nocapture noundef readonly, ...) local_unnamed_addr #2

; Function Attrs: nofree nounwind
declare noundef i32 @printf(i8* nocapture noundef readonly, ...) local_unnamed_addr #2

; Function Attrs: argmemonly mustprogress nofree nosync nounwind willreturn
declare void @llvm.lifetime.end.p0i8(i64 immarg, i8* nocapture) #1


!llvm.module.flags = !{!0, !1, !2, !3}
!llvm.ident = !{!4}

!0 = !{i32 1, !"wchar_size", i32 4}
!1 = !{i32 7, !"PIC Level", i32 2}
!2 = !{i32 7, !"PIE Level", i32 2}
!3 = !{i32 7, !"uwtable", i32 1}
!4 = !{!"clang version 13.0.0"}
!5 = !{!6, !6, i64 0}
!6 = !{!"int", !7, i64 0}
!7 = !{!"omnipotent char", !8, i64 0}
!8 = !{!"Simple C/C++ TBAA"}
!9 = distinct !{!9, !10}
!10 = !{!"llvm.loop.mustprogress"}
